target datalayout = "e-m:e-p270:32:32-p271:32:32-p272:64:64-i64:64-i128:128-f80:128-n8:16:32:64-S128"
target triple = "x86_64-pc-linux-gnu"

%struct.slurm_opt_t = type { ptr, ptr, ptr, ptr, ptr, ptr, ptr, ptr, i32, ptr, ptr, ptr, ptr, i32, i32, ptr, i32, i8, i8, i32, i8, i32, i32, ptr, i8, i32, i32, i64, i32, i32, i32, i32, i32, i32, ptr, i32, ptr, i8, i32, i32, ptr, i32, i32, i32, ptr, ptr, i32, i32, ptr, ptr, ptr, i32, i16, i16, i16, i8, i8, ptr, i8, i16, ptr, ptr, i32, i32, i32, ptr, ptr, ptr, ptr, ptr, ptr, i32, i64, i64, i64, i16, i64, ptr, ptr, ptr, ptr, ptr, ptr, ptr, i8, ptr, ptr, ptr, ptr, i8, i64, ptr, i16, ptr, i32, i32, ptr, ptr, i32, i32, i32, ptr, i32, i32, i32, i32, i32, ptr, i64, i32, i16, i32, ptr, ptr, ptr, ptr, ptr, i16, ptr, ptr, i16, i8, ptr, ptr, ptr, ptr }
%struct.slurm_conf_t = type { i64, ptr, i16, ptr, ptr, ptr, ptr, ptr, i16, ptr, ptr, ptr, ptr, ptr, ptr, ptr, i16, ptr, ptr, ptr, ptr, i16, ptr, ptr, ptr, i64, ptr, ptr, ptr, ptr, i16, ptr, ptr, i16, i32, ptr, i32, ptr, i32, i32, ptr, ptr, i64, i64, ptr, i16, i16, ptr, i32, i32, ptr, i32, ptr, i32, i16, i16, i16, ptr, i16, i16, ptr, ptr, i32, i16, i16, ptr, i32, i16, ptr, ptr, ptr, ptr, i16, ptr, ptr, ptr, ptr, i32, ptr, ptr, ptr, ptr, i16, i16, ptr, i32, i32, i32, i16, i16, ptr, ptr, i16, ptr, ptr, i32, i32, i32, i32, i32, i64, i32, i32, i16, ptr, ptr, i32, ptr, ptr, ptr, i16, i32, ptr, ptr, i16, ptr, ptr, i32, i16, ptr, ptr, ptr, ptr, i32, i32, i16, i16, i32, ptr, i16, ptr, i32, i32, i32, i32, i32, i32, ptr, i16, ptr, ptr, i32, i16, ptr, i32, i16, i16, ptr, ptr, ptr, i16, ptr, ptr, ptr, ptr, i16, i16, ptr, i16, ptr, i16, ptr, i16, ptr, i16, ptr, ptr, ptr, ptr, i16, ptr, ptr, ptr, i32, ptr, i32, ptr, ptr, i16, ptr, ptr, i32, i16, ptr, ptr, i16, i16, ptr, i16, ptr, ptr, ptr, i32, ptr, i16, i16, ptr, ptr, ptr, ptr, ptr, ptr, ptr, ptr, i16, i32, i16, ptr, ptr, ptr, ptr, i32, ptr, ptr, ptr, i16, ptr, ptr, ptr, i16, ptr, i16, ptr, i16, i16, ptr }
%struct.srun_opt_t = type { i16, ptr, ptr, ptr, i8, ptr, i16, i8, ptr, i32, i8, i8, i8, ptr, i8, i8, i8, i32, i32, i32, i8, i32, i32, i32, ptr, i8, i32, i8, i8, ptr, ptr, i32, i8, i8, ptr, ptr, ptr, i8, i32, i8, i32, ptr, ptr, i8, i8, i16, i8, i8 }
%struct.job_descriptor = type { ptr, ptr, ptr, ptr, i16, i32, i32, ptr, ptr, ptr, ptr, i64, i64, ptr, ptr, ptr, ptr, i16, ptr, ptr, i16, ptr, i16, i32, i32, i32, ptr, ptr, i64, i32, ptr, i64, ptr, %struct.slurm_hash_t, i32, ptr, ptr, ptr, i64, i64, i32, i32, ptr, i16, i32, ptr, ptr, i16, ptr, ptr, i16, ptr, ptr, ptr, i16, ptr, ptr, ptr, i32, i32, i16, i8, ptr, i16, i8, ptr, i16, ptr, i32, i32, ptr, i16, ptr, i16, ptr, i16, ptr, i16, ptr, ptr, %struct.slurm_hash_t, i16, i32, ptr, i32, ptr, i32, i32, i32, ptr, ptr, ptr, ptr, ptr, ptr, i32, i16, i16, i16, i16, ptr, i16, i32, i32, i32, i32, i16, i16, i16, i16, i16, i16, i16, i16, i16, i16, i16, i64, i32, ptr, i32, i16, ptr, ptr, ptr, ptr, ptr, i32, ptr, i16, ptr, ptr, i16 }
%struct.slurm_hash_t = type { i8, [32 x i8] }

@opt = external global %struct.slurm_opt_t, align 8
@slurm_conf = external global %struct.slurm_conf_t, align 8
@.str.33 = private unnamed_addr constant [15 x i8] c"enable_stepmgr\00", align 1

; Function Attrs: nounwind uwtable
define internal ptr @_job_desc_msg_create_from_opts(ptr noundef %0) #0 {
  %2 = alloca ptr, align 8
  %3 = alloca ptr, align 8
  %4 = alloca ptr, align 8
  %5 = alloca ptr, align 8
  %6 = alloca i32, align 4
  store ptr %0, ptr %3, align 8
  call void @llvm.lifetime.start.p0(i64 8, ptr %4) #7
  %7 = load ptr, ptr %3, align 8
  %8 = getelementptr inbounds nuw %struct.slurm_opt_t, ptr %7, i32 0, i32 3
  %9 = load ptr, ptr %8, align 8
  store ptr %9, ptr %4, align 8
  call void @llvm.lifetime.start.p0(i64 8, ptr %5) #7
  %10 = load ptr, ptr %3, align 8
  %11 = call ptr @slurm_opt_create_job_desc(ptr noundef %10, i1 noundef zeroext true)
  store ptr %11, ptr %5, align 8
  %12 = load ptr, ptr %5, align 8
  %13 = icmp ne ptr %12, null
  br i1 %13, label %15, label %14

14:                                               ; preds = %1
  store ptr null, ptr %2, align 8
  store i32 1, ptr %6, align 4
  br label %122

15:                                               ; preds = %1
  %16 = load ptr, ptr %3, align 8
  %17 = getelementptr inbounds nuw %struct.slurm_opt_t, ptr %16, i32 0, i32 98
  %18 = load i32, ptr %17, align 8
  %19 = icmp ne i32 %18, -2
  br i1 %19, label %20, label %33

20:                                               ; preds = %15
  %21 = load ptr, ptr %3, align 8
  %22 = getelementptr inbounds nuw %struct.slurm_opt_t, ptr %21, i32 0, i32 27
  %23 = load i64, ptr %22, align 8
  %24 = and i64 %23, 2199023255552
  %25 = icmp ne i64 %24, 0
  br i1 %25, label %33, label %26

26:                                               ; preds = %20
  %27 = load ptr, ptr getelementptr inbounds nuw (%struct.slurm_conf_t, ptr @slurm_conf, i32 0, i32 187), align 8
  %28 = call ptr @xstrstr(ptr noundef %27, ptr noundef @.str.33)
  %29 = icmp ne ptr %28, null
  br i1 %29, label %33, label %30

30:                                               ; preds = %26
  %31 = load ptr, ptr %5, align 8
  %32 = getelementptr inbounds nuw %struct.job_descriptor, ptr %31, i32 0, i32 77
  store i16 -2, ptr %32, align 8
  br label %33

33:                                               ; preds = %30, %26, %20, %15
  %34 = load ptr, ptr %5, align 8
  %35 = getelementptr inbounds nuw %struct.job_descriptor, ptr %34, i32 0, i32 56
  %36 = load ptr, ptr %35, align 8
  %37 = icmp ne ptr %36, null
  br i1 %37, label %45, label %38

38:                                               ; preds = %33
  %39 = load ptr, ptr %4, align 8
  %40 = getelementptr inbounds nuw %struct.srun_opt_t, ptr %39, i32 0, i32 5
  %41 = load ptr, ptr %40, align 8
  %42 = call ptr @xstrdup(ptr noundef %41)
  %43 = load ptr, ptr %5, align 8
  %44 = getelementptr inbounds nuw %struct.job_descriptor, ptr %43, i32 0, i32 56
  store ptr %42, ptr %44, align 8
  br label %45

45:                                               ; preds = %38, %33
  %46 = load ptr, ptr %3, align 8
  %47 = getelementptr inbounds nuw %struct.slurm_opt_t, ptr %46, i32 0, i32 8
  %48 = load i32, ptr %47, align 8
  %49 = icmp sgt i32 %48, 0
  br i1 %49, label %50, label %61

50:                                               ; preds = %45
  %51 = load ptr, ptr %3, align 8
  %52 = getelementptr inbounds nuw %struct.slurm_opt_t, ptr %51, i32 0, i32 8
  %53 = load i32, ptr %52, align 8
  %54 = load ptr, ptr %5, align 8
  %55 = getelementptr inbounds nuw %struct.job_descriptor, ptr %54, i32 0, i32 6
  store i32 %53, ptr %55, align 8
  %56 = load ptr, ptr %3, align 8
  %57 = getelementptr inbounds nuw %struct.slurm_opt_t, ptr %56, i32 0, i32 9
  %58 = load ptr, ptr %57, align 8
  %59 = load ptr, ptr %5, align 8
  %60 = getelementptr inbounds nuw %struct.job_descriptor, ptr %59, i32 0, i32 7
  store ptr %58, ptr %60, align 8
  br label %61

61:                                               ; preds = %50, %45
  %62 = load ptr, ptr %3, align 8
  %63 = getelementptr inbounds nuw %struct.slurm_opt_t, ptr %62, i32 0, i32 81
  %64 = load ptr, ptr %63, align 8
  %65 = call ptr @xstrdup(ptr noundef %64)
  %66 = load ptr, ptr %5, align 8
  %67 = getelementptr inbounds nuw %struct.job_descriptor, ptr %66, i32 0, i32 18
  store ptr %65, ptr %67, align 8
  %68 = load ptr, ptr %3, align 8
  %69 = getelementptr inbounds nuw %struct.slurm_opt_t, ptr %68, i32 0, i32 82
  %70 = load ptr, ptr %69, align 8
  %71 = call ptr @xstrdup(ptr noundef %70)
  %72 = load ptr, ptr %5, align 8
  %73 = getelementptr inbounds nuw %struct.job_descriptor, ptr %72, i32 0, i32 19
  store ptr %71, ptr %73, align 8
  %74 = load ptr, ptr %4, align 8
  %75 = getelementptr inbounds nuw %struct.srun_opt_t, ptr %74, i32 0, i32 8
  %76 = load ptr, ptr %75, align 8
  %77 = icmp ne ptr %76, null
  br i1 %77, label %78, label %85

78:                                               ; preds = %61
  %79 = load ptr, ptr %4, align 8
  %80 = getelementptr inbounds nuw %struct.srun_opt_t, ptr %79, i32 0, i32 8
  %81 = load ptr, ptr %80, align 8
  %82 = call ptr @xstrdup(ptr noundef %81)
  %83 = load ptr, ptr %5, align 8
  %84 = getelementptr inbounds nuw %struct.job_descriptor, ptr %83, i32 0, i32 21
  store ptr %82, ptr %84, align 8
  br label %85

85:                                               ; preds = %78, %61
  %86 = load ptr, ptr %4, align 8
  %87 = getelementptr inbounds nuw %struct.srun_opt_t, ptr %86, i32 0, i32 9
  %88 = load i32, ptr %87, align 8
  %89 = icmp ne i32 %88, 0
  br i1 %89, label %90, label %97

90:                                               ; preds = %85
  %91 = load ptr, ptr %4, align 8
  %92 = getelementptr inbounds nuw %struct.srun_opt_t, ptr %91, i32 0, i32 9
  %93 = load i32, ptr %92, align 8
  %94 = trunc i32 %93 to i16
  %95 = load ptr, ptr %5, align 8
  %96 = getelementptr inbounds nuw %struct.job_descriptor, ptr %95, i32 0, i32 22
  store i16 %94, ptr %96, align 8
  br label %97

97:                                               ; preds = %90, %85
  %98 = load ptr, ptr %5, align 8
  %99 = getelementptr inbounds nuw %struct.job_descriptor, ptr %98, i32 0, i32 129
  %100 = load i16, ptr %99, align 8
  %101 = icmp ne i16 %100, 0
  br i1 %101, label %118, label %102

102:                                              ; preds = %97
  %103 = load i16, ptr getelementptr inbounds nuw (%struct.slurm_opt_t, ptr @opt, i32 0, i32 117), align 8
  %104 = zext i16 %103 to i32
  %105 = icmp ne i32 %104, 0
  br i1 %105, label %106, label %118

106:                                              ; preds = %102
  %107 = load ptr, ptr getelementptr inbounds nuw (%struct.slurm_opt_t, ptr @opt, i32 0, i32 118), align 8
  %108 = call ptr @xstrdup(ptr noundef %107)
  %109 = load ptr, ptr %5, align 8
  %110 = getelementptr inbounds nuw %struct.job_descriptor, ptr %109, i32 0, i32 130
  store ptr %108, ptr %110, align 8
  %111 = load ptr, ptr getelementptr inbounds nuw (%struct.slurm_opt_t, ptr @opt, i32 0, i32 119), align 8
  %112 = call ptr @xstrdup(ptr noundef %111)
  %113 = load ptr, ptr %5, align 8
  %114 = getelementptr inbounds nuw %struct.job_descriptor, ptr %113, i32 0, i32 131
  store ptr %112, ptr %114, align 8
  %115 = load i16, ptr getelementptr inbounds nuw (%struct.slurm_opt_t, ptr @opt, i32 0, i32 120), align 8
  %116 = load ptr, ptr %5, align 8
  %117 = getelementptr inbounds nuw %struct.job_descriptor, ptr %116, i32 0, i32 132
  store i16 %115, ptr %117, align 8
  br label %118

118:                                              ; preds = %106, %102, %97
  %119 = load ptr, ptr %5, align 8
  %120 = getelementptr inbounds nuw %struct.job_descriptor, ptr %119, i32 0, i32 96
  store i16 1, ptr %120, align 4
  %121 = load ptr, ptr %5, align 8
  store ptr %121, ptr %2, align 8
  store i32 1, ptr %6, align 4
  br label %122

122:                                              ; preds = %118, %14
  call void @llvm.lifetime.end.p0(i64 8, ptr %5) #7
  call void @llvm.lifetime.end.p0(i64 8, ptr %4) #7
  %123 = load ptr, ptr %2, align 8
  ret ptr %123
}