; Function Attrs: nounwind uwtable
define internal fastcc ptr @_job_desc_msg_create_from_opts(ptr noundef %0) unnamed_addr #0 {
  %2 = getelementptr inbounds nuw i8, ptr %0, i64 24
  %3 = load ptr, ptr %2, align 8
  %4 = tail call ptr @slurm_opt_create_job_desc(ptr noundef %0, i1 noundef zeroext true) #9
  %.not = icmp eq ptr %4, null
  br i1 %.not, label %70, label %5

5:                                                ; preds = %1
  %6 = getelementptr inbounds nuw i8, ptr %0, i64 632
  %7 = load i32, ptr %6, align 8
  %.not37 = icmp eq i32 %7, -2
  br i1 %.not37, label %17, label %8

8:                                                ; preds = %5
  %9 = getelementptr inbounds nuw i8, ptr %0, i64 168
  %10 = load i64, ptr %9, align 8
  %11 = and i64 %10, 2199023255552
  %.not38 = icmp eq i64 %11, 0
  br i1 %.not38, label %12, label %17

12:                                               ; preds = %8
  %13 = load ptr, ptr getelementptr inbounds nuw (i8, ptr @slurm_conf, i64 1248), align 8
  %14 = tail call ptr @xstrstr(ptr noundef %13, ptr noundef nonnull @.str.33) #9
  %.not39 = icmp eq ptr %14, null
  br i1 %.not39, label %15, label %17

15:                                               ; preds = %12
  %16 = getelementptr inbounds nuw i8, ptr %4, i64 568
  store i16 -2, ptr %16, align 8
  br label %17

17:                                               ; preds = %15, %12, %8, %5
  %18 = getelementptr inbounds nuw i8, ptr %4, i64 432
  %19 = load ptr, ptr %18, align 8
  %.not40 = icmp eq ptr %19, null
  br i1 %.not40, label %20, label %24

20:                                               ; preds = %17
  %21 = getelementptr inbounds nuw i8, ptr %3, i64 40
  %22 = load ptr, ptr %21, align 8
  %23 = tail call ptr @xstrdup(ptr noundef %22) #9
  store ptr %23, ptr %18, align 8
  br label %24

24:                                               ; preds = %20, %17
  %25 = getelementptr inbounds nuw i8, ptr %0, i64 64
  %26 = load i32, ptr %25, align 8
  %27 = icmp sgt i32 %26, 0
  br i1 %27, label %28, label %33

28:                                               ; preds = %24
  %29 = getelementptr inbounds nuw i8, ptr %4, i64 40
  store i32 %26, ptr %29, align 8
  %30 = getelementptr inbounds nuw i8, ptr %0, i64 72
  %31 = load ptr, ptr %30, align 8
  %32 = getelementptr inbounds nuw i8, ptr %4, i64 48
  store ptr %31, ptr %32, align 8
  br label %33

33:                                               ; preds = %28, %24
  %34 = getelementptr inbounds nuw i8, ptr %0, i64 504
  %35 = load ptr, ptr %34, align 8
  %36 = tail call ptr @xstrdup(ptr noundef %35) #9
  %37 = getelementptr inbounds nuw i8, ptr %4, i64 136
  store ptr %36, ptr %37, align 8
  %38 = getelementptr inbounds nuw i8, ptr %0, i64 512
  %39 = load ptr, ptr %38, align 8
  %40 = tail call ptr @xstrdup(ptr noundef %39) #9
  %41 = getelementptr inbounds nuw i8, ptr %4, i64 144
  store ptr %40, ptr %41, align 8
  %42 = getelementptr inbounds nuw i8, ptr %3, i64 56
  %43 = load ptr, ptr %42, align 8
  %.not41 = icmp eq ptr %43, null
  br i1 %.not41, label %47, label %44

44:                                               ; preds = %33
  %45 = tail call ptr @xstrdup(ptr noundef nonnull %43) #9
  %46 = getelementptr inbounds nuw i8, ptr %4, i64 160
  store ptr %45, ptr %46, align 8
  br label %47

47:                                               ; preds = %44, %33
  %48 = getelementptr inbounds nuw i8, ptr %3, i64 64
  %49 = load i32, ptr %48, align 8
  %.not42 = icmp eq i32 %49, 0
  br i1 %.not42, label %53, label %50

50:                                               ; preds = %47
  %51 = trunc i32 %49 to i16
  %52 = getelementptr inbounds nuw i8, ptr %4, i64 168
  store i16 %51, ptr %52, align 8
  br label %53

53:                                               ; preds = %50, %47
  %54 = getelementptr inbounds nuw i8, ptr %4, i64 880
  %55 = load i16, ptr %54, align 8
  %56 = icmp eq i16 %55, 0
  %57 = load i16, ptr getelementptr inbounds nuw (i8, ptr @opt, i64 752), align 8
  %58 = icmp ne i16 %57, 0
  %or.cond = select i1 %56, i1 %58, i1 false
  br i1 %or.cond, label %59, label %68

59:                                               ; preds = %53
  %60 = load ptr, ptr getelementptr inbounds nuw (i8, ptr @opt, i64 760), align 8
  %61 = tail call ptr @xstrdup(ptr noundef %60) #9
  %62 = getelementptr inbounds nuw i8, ptr %4, i64 888
  store ptr %61, ptr %62, align 8
  %63 = load ptr, ptr getelementptr inbounds nuw (i8, ptr @opt, i64 768), align 8
  %64 = tail call ptr @xstrdup(ptr noundef %63) #9
  %65 = getelementptr inbounds nuw i8, ptr %4, i64 896
  store ptr %64, ptr %65, align 8
  %66 = load i16, ptr getelementptr inbounds nuw (i8, ptr @opt, i64 776), align 8
  %67 = getelementptr inbounds nuw i8, ptr %4, i64 904
  store i16 %66, ptr %67, align 8
  br label %68

68:                                               ; preds = %59, %53
  %69 = getelementptr inbounds nuw i8, ptr %4, i64 724
  store i16 1, ptr %69, align 4
  br label %70

70:                                               ; preds = %1, %68
  ret ptr %4
}